target datalayout = "e-m:e-p270:32:32-p271:32:32-p272:64:64-i64:64-i128:128-f80:128-n8:16:32:64-S128"
target triple = "x86_64-pc-linux-gnu"

%struct.jpeg_decompress_struct = type { ptr, ptr, ptr, ptr, i32, i32, ptr, i32, i32, i32, i32, i32, i32, i32, double, i32, i32, i32, i32, i32, i32, i32, i32, i32, i32, i32, i32, i32, i32, i32, i32, i32, i32, ptr, i32, i32, i32, i32, i32, ptr, [4 x ptr], [4 x ptr], [4 x ptr], i32, ptr, i32, i32, [16 x i8], [16 x i8], [16 x i8], i32, i32, i8, i8, i8, i16, i16, i32, i8, i32, ptr, i32, i32, i32, i32, ptr, i32, [4 x ptr], i32, i32, i32, [10 x i32], i32, i32, i32, i32, i32, ptr, ptr, ptr, ptr, ptr, ptr, ptr, ptr, ptr, ptr, ptr }
%struct.jpeg_error_mgr = type { ptr, ptr, ptr, ptr, ptr, i32, %union.anon, i32, i64, ptr, i32, ptr, i32, i32 }
%union.anon = type { [8 x i32], [48 x i8] }
%struct.jpeg_memory_mgr = type { ptr, ptr, ptr, ptr, ptr, ptr, ptr, ptr, ptr, ptr, ptr, i64, i64 }
%struct.my_main_controller = type { %struct.jpeg_d_main_controller, [10 x ptr], i32, i32, [2 x ptr], i32, i32, i32, i32 }
%struct.jpeg_d_main_controller = type { ptr, ptr, ptr, ptr }
%struct.jpeg_upsampler = type { ptr, ptr, ptr, ptr, i32 }
%struct.jpeg_component_info = type { i32, i32, i32, i32, i32, i32, i32, i32, i32, i32, i32, i32, i32, i32, i32, i32, i32, i32, i32, ptr, ptr }

; Function Attrs: nounwind uwtable
define internal void @alloc_funny_pointers(ptr noundef %0) #0 {
  %2 = alloca ptr, align 8
  %3 = alloca ptr, align 8
  %4 = alloca i32, align 4
  %5 = alloca i32, align 4
  %6 = alloca i32, align 4
  %7 = alloca ptr, align 8
  %8 = alloca ptr, align 8
  store ptr %0, ptr %2, align 8
  %9 = load ptr, ptr %2, align 8
  %10 = getelementptr inbounds %struct.jpeg_decompress_struct, ptr %9, i32 0, i32 78
  %11 = load ptr, ptr %10, align 8
  store ptr %11, ptr %3, align 8
  %12 = load ptr, ptr %2, align 8
  %13 = getelementptr inbounds %struct.jpeg_decompress_struct, ptr %12, i32 0, i32 63
  %14 = load i32, ptr %13, align 8
  store i32 %14, ptr %6, align 4
  %15 = load ptr, ptr %2, align 8
  %16 = getelementptr inbounds %struct.jpeg_decompress_struct, ptr %15, i32 0, i32 1
  %17 = load ptr, ptr %16, align 8
  %18 = getelementptr inbounds %struct.jpeg_memory_mgr, ptr %17, i32 0, i32 0
  %19 = load ptr, ptr %18, align 8
  %20 = load ptr, ptr %2, align 8
  %21 = load ptr, ptr %2, align 8
  %22 = getelementptr inbounds %struct.jpeg_decompress_struct, ptr %21, i32 0, i32 9
  %23 = load i32, ptr %22, align 8
  %24 = mul nsw i32 %23, 2
  %25 = sext i32 %24 to i64
  %26 = mul i64 %25, 8
  %27 = call ptr %19(ptr noundef %20, i32 noundef 1, i64 noundef %26)
  %28 = load ptr, ptr %3, align 8
  %29 = getelementptr inbounds %struct.my_main_controller, ptr %28, i32 0, i32 4
  %30 = getelementptr inbounds [2 x ptr], ptr %29, i64 0, i64 0
  store ptr %27, ptr %30, align 8
  %31 = load ptr, ptr %3, align 8
  %32 = getelementptr inbounds %struct.my_main_controller, ptr %31, i32 0, i32 4
  %33 = getelementptr inbounds [2 x ptr], ptr %32, i64 0, i64 0
  %34 = load ptr, ptr %33, align 8
  %35 = load ptr, ptr %2, align 8
  %36 = getelementptr inbounds %struct.jpeg_decompress_struct, ptr %35, i32 0, i32 9
  %37 = load i32, ptr %36, align 8
  %38 = sext i32 %37 to i64
  %39 = getelementptr inbounds ptr, ptr %34, i64 %38
  %40 = load ptr, ptr %3, align 8
  %41 = getelementptr inbounds %struct.my_main_controller, ptr %40, i32 0, i32 4
  %42 = getelementptr inbounds [2 x ptr], ptr %41, i64 0, i64 1
  store ptr %39, ptr %42, align 8
  store i32 0, ptr %4, align 4
  %43 = load ptr, ptr %2, align 8
  %44 = getelementptr inbounds %struct.jpeg_decompress_struct, ptr %43, i32 0, i32 44
  %45 = load ptr, ptr %44, align 8
  store ptr %45, ptr %7, align 8
  br label %46

46:                                               ; preds = %105, %1
  %47 = load i32, ptr %4, align 4
  %48 = load ptr, ptr %2, align 8
  %49 = getelementptr inbounds %struct.jpeg_decompress_struct, ptr %48, i32 0, i32 9
  %50 = load i32, ptr %49, align 8
  %51 = icmp slt i32 %47, %50
  br i1 %51, label %52, label %110

52:                                               ; preds = %46
  %53 = load ptr, ptr %7, align 8
  %54 = getelementptr inbounds %struct.jpeg_component_info, ptr %53, i32 0, i32 3
  %55 = load i32, ptr %54, align 4
  %56 = load ptr, ptr %7, align 8
  %57 = getelementptr inbounds %struct.jpeg_component_info, ptr %56, i32 0, i32 9
  %58 = load i32, ptr %57, align 4
  %59 = mul nsw i32 %55, %58
  %60 = load ptr, ptr %2, align 8
  %61 = getelementptr inbounds %struct.jpeg_decompress_struct, ptr %60, i32 0, i32 63
  %62 = load i32, ptr %61, align 8
  %63 = sdiv i32 %59, %62
  store i32 %63, ptr %5, align 4
  %64 = load ptr, ptr %2, align 8
  %65 = getelementptr inbounds %struct.jpeg_decompress_struct, ptr %64, i32 0, i32 1
  %66 = load ptr, ptr %65, align 8
  %67 = getelementptr inbounds %struct.jpeg_memory_mgr, ptr %66, i32 0, i32 0
  %68 = load ptr, ptr %67, align 8
  %69 = load ptr, ptr %2, align 8
  %70 = load i32, ptr %5, align 4
  %71 = load i32, ptr %6, align 4
  %72 = add nsw i32 %71, 4
  %73 = mul nsw i32 %70, %72
  %74 = mul nsw i32 2, %73
  %75 = sext i32 %74 to i64
  %76 = mul i64 %75, 8
  %77 = call ptr %68(ptr noundef %69, i32 noundef 1, i64 noundef %76)
  store ptr %77, ptr %8, align 8
  %78 = load i32, ptr %5, align 4
  %79 = load ptr, ptr %8, align 8
  %80 = sext i32 %78 to i64
  %81 = getelementptr inbounds ptr, ptr %79, i64 %80
  store ptr %81, ptr %8, align 8
  %82 = load ptr, ptr %8, align 8
  %83 = load ptr, ptr %3, align 8
  %84 = getelementptr inbounds %struct.my_main_controller, ptr %83, i32 0, i32 4
  %85 = getelementptr inbounds [2 x ptr], ptr %84, i64 0, i64 0
  %86 = load ptr, ptr %85, align 8
  %87 = load i32, ptr %4, align 4
  %88 = sext i32 %87 to i64
  %89 = getelementptr inbounds ptr, ptr %86, i64 %88
  store ptr %82, ptr %89, align 8
  %90 = load i32, ptr %5, align 4
  %91 = load i32, ptr %6, align 4
  %92 = add nsw i32 %91, 4
  %93 = mul nsw i32 %90, %92
  %94 = load ptr, ptr %8, align 8
  %95 = sext i32 %93 to i64
  %96 = getelementptr inbounds ptr, ptr %94, i64 %95
  store ptr %96, ptr %8, align 8
  %97 = load ptr, ptr %8, align 8
  %98 = load ptr, ptr %3, align 8
  %99 = getelementptr inbounds %struct.my_main_controller, ptr %98, i32 0, i32 4
  %100 = getelementptr inbounds [2 x ptr], ptr %99, i64 0, i64 1
  %101 = load ptr, ptr %100, align 8
  %102 = load i32, ptr %4, align 4
  %103 = sext i32 %102 to i64
  %104 = getelementptr inbounds ptr, ptr %101, i64 %103
  store ptr %97, ptr %104, align 8
  br label %105

105:                                              ; preds = %52
  %106 = load i32, ptr %4, align 4
  %107 = add nsw i32 %106, 1
  store i32 %107, ptr %4, align 4
  %108 = load ptr, ptr %7, align 8
  %109 = getelementptr inbounds %struct.jpeg_component_info, ptr %108, i32 1
  store ptr %109, ptr %7, align 8
  br label %46, !llvm.loop !6

110:                                              ; preds = %46
  ret void
}

; Function Attrs: nounwind uwtable
define void @jinit_d_main_controller(ptr noundef %0, i32 noundef %1) #0 {
  %3 = alloca ptr, align 8
  %4 = alloca i32, align 4
  %5 = alloca ptr, align 8
  %6 = alloca i32, align 4
  %7 = alloca i32, align 4
  %8 = alloca i32, align 4
  %9 = alloca ptr, align 8
  store ptr %0, ptr %3, align 8
  store i32 %1, ptr %4, align 4
  %10 = load ptr, ptr %3, align 8
  %11 = getelementptr inbounds %struct.jpeg_decompress_struct, ptr %10, i32 0, i32 43
  %12 = load i32, ptr %11, align 8
  %13 = icmp ne i32 %12, 8
  br i1 %13, label %14, label %33

14:                                               ; preds = %2
  %15 = load ptr, ptr %3, align 8
  %16 = getelementptr inbounds %struct.jpeg_decompress_struct, ptr %15, i32 0, i32 0
  %17 = load ptr, ptr %16, align 8
  %18 = getelementptr inbounds %struct.jpeg_error_mgr, ptr %17, i32 0, i32 5
  store i32 15, ptr %18, align 8
  %19 = load ptr, ptr %3, align 8
  %20 = getelementptr inbounds %struct.jpeg_decompress_struct, ptr %19, i32 0, i32 43
  %21 = load i32, ptr %20, align 8
  %22 = load ptr, ptr %3, align 8
  %23 = getelementptr inbounds %struct.jpeg_decompress_struct, ptr %22, i32 0, i32 0
  %24 = load ptr, ptr %23, align 8
  %25 = getelementptr inbounds %struct.jpeg_error_mgr, ptr %24, i32 0, i32 6
  %26 = getelementptr inbounds [8 x i32], ptr %25, i64 0, i64 0
  store i32 %21, ptr %26, align 4
  %27 = load ptr, ptr %3, align 8
  %28 = getelementptr inbounds %struct.jpeg_decompress_struct, ptr %27, i32 0, i32 0
  %29 = load ptr, ptr %28, align 8
  %30 = getelementptr inbounds %struct.jpeg_error_mgr, ptr %29, i32 0, i32 0
  %31 = load ptr, ptr %30, align 8
  %32 = load ptr, ptr %3, align 8
  call void %31(ptr noundef %32)
  br label %33

33:                                               ; preds = %14, %2
  %34 = load ptr, ptr %3, align 8
  %35 = getelementptr inbounds %struct.jpeg_decompress_struct, ptr %34, i32 0, i32 1
  %36 = load ptr, ptr %35, align 8
  %37 = getelementptr inbounds %struct.jpeg_memory_mgr, ptr %36, i32 0, i32 0
  %38 = load ptr, ptr %37, align 8
  %39 = load ptr, ptr %3, align 8
  %40 = call ptr %38(ptr noundef %39, i32 noundef 1, i64 noundef 152)
  store ptr %40, ptr %5, align 8
  %41 = load ptr, ptr %5, align 8
  %42 = load ptr, ptr %3, align 8
  %43 = getelementptr inbounds %struct.jpeg_decompress_struct, ptr %42, i32 0, i32 78
  store ptr %41, ptr %43, align 8
  %44 = load ptr, ptr %5, align 8
  %45 = getelementptr inbounds %struct.my_main_controller, ptr %44, i32 0, i32 0
  %46 = getelementptr inbounds %struct.jpeg_d_main_controller, ptr %45, i32 0, i32 0
  store ptr @start_pass_main, ptr %46, align 8
  %47 = load i32, ptr %4, align 4
  %48 = icmp ne i32 %47, 0
  br i1 %48, label %49, label %60

49:                                               ; preds = %33
  %50 = load ptr, ptr %3, align 8
  %51 = getelementptr inbounds %struct.jpeg_decompress_struct, ptr %50, i32 0, i32 0
  %52 = load ptr, ptr %51, align 8
  %53 = getelementptr inbounds %struct.jpeg_error_mgr, ptr %52, i32 0, i32 5
  store i32 4, ptr %53, align 8
  %54 = load ptr, ptr %3, align 8
  %55 = getelementptr inbounds %struct.jpeg_decompress_struct, ptr %54, i32 0, i32 0
  %56 = load ptr, ptr %55, align 8
  %57 = getelementptr inbounds %struct.jpeg_error_mgr, ptr %56, i32 0, i32 0
  %58 = load ptr, ptr %57, align 8
  %59 = load ptr, ptr %3, align 8
  call void %58(ptr noundef %59)
  br label %60

60:                                               ; preds = %49, %33
  %61 = load ptr, ptr %3, align 8
  %62 = getelementptr inbounds %struct.jpeg_decompress_struct, ptr %61, i32 0, i32 85
  %63 = load ptr, ptr %62, align 8
  %64 = getelementptr inbounds %struct.jpeg_upsampler, ptr %63, i32 0, i32 4
  %65 = load i32, ptr %64, align 8
  %66 = icmp ne i32 %65, 0
  br i1 %66, label %67, label %89

67:                                               ; preds = %60
  %68 = load ptr, ptr %3, align 8
  %69 = getelementptr inbounds %struct.jpeg_decompress_struct, ptr %68, i32 0, i32 63
  %70 = load i32, ptr %69, align 8
  %71 = icmp slt i32 %70, 2
  br i1 %71, label %72, label %83

72:                                               ; preds = %67
  %73 = load ptr, ptr %3, align 8
  %74 = getelementptr inbounds %struct.jpeg_decompress_struct, ptr %73, i32 0, i32 0
  %75 = load ptr, ptr %74, align 8
  %76 = getelementptr inbounds %struct.jpeg_error_mgr, ptr %75, i32 0, i32 5
  store i32 47, ptr %76, align 8
  %77 = load ptr, ptr %3, align 8
  %78 = getelementptr inbounds %struct.jpeg_decompress_struct, ptr %77, i32 0, i32 0
  %79 = load ptr, ptr %78, align 8
  %80 = getelementptr inbounds %struct.jpeg_error_mgr, ptr %79, i32 0, i32 0
  %81 = load ptr, ptr %80, align 8
  %82 = load ptr, ptr %3, align 8
  call void %81(ptr noundef %82)
  br label %83

83:                                               ; preds = %72, %67
  %84 = load ptr, ptr %3, align 8
  call void @alloc_funny_pointers(ptr noundef %84)
  %85 = load ptr, ptr %3, align 8
  %86 = getelementptr inbounds %struct.jpeg_decompress_struct, ptr %85, i32 0, i32 63
  %87 = load i32, ptr %86, align 8
  %88 = add nsw i32 %87, 2
  store i32 %88, ptr %8, align 4
  br label %93

89:                                               ; preds = %60
  %90 = load ptr, ptr %3, align 8
  %91 = getelementptr inbounds %struct.jpeg_decompress_struct, ptr %90, i32 0, i32 63
  %92 = load i32, ptr %91, align 8
  store i32 %92, ptr %8, align 4
  br label %93

93:                                               ; preds = %89, %83
  store i32 0, ptr %6, align 4
  %94 = load ptr, ptr %3, align 8
  %95 = getelementptr inbounds %struct.jpeg_decompress_struct, ptr %94, i32 0, i32 44
  %96 = load ptr, ptr %95, align 8
  store ptr %96, ptr %9, align 8
  br label %97

97:                                               ; preds = %137, %93
  %98 = load i32, ptr %6, align 4
  %99 = load ptr, ptr %3, align 8
  %100 = getelementptr inbounds %struct.jpeg_decompress_struct, ptr %99, i32 0, i32 9
  %101 = load i32, ptr %100, align 8
  %102 = icmp slt i32 %98, %101
  br i1 %102, label %103, label %142

103:                                              ; preds = %97
  %104 = load ptr, ptr %9, align 8
  %105 = getelementptr inbounds %struct.jpeg_component_info, ptr %104, i32 0, i32 3
  %106 = load i32, ptr %105, align 4
  %107 = load ptr, ptr %9, align 8
  %108 = getelementptr inbounds %struct.jpeg_component_info, ptr %107, i32 0, i32 9
  %109 = load i32, ptr %108, align 4
  %110 = mul nsw i32 %106, %109
  %111 = load ptr, ptr %3, align 8
  %112 = getelementptr inbounds %struct.jpeg_decompress_struct, ptr %111, i32 0, i32 63
  %113 = load i32, ptr %112, align 8
  %114 = sdiv i32 %110, %113
  store i32 %114, ptr %7, align 4
  %115 = load ptr, ptr %3, align 8
  %116 = getelementptr inbounds %struct.jpeg_decompress_struct, ptr %115, i32 0, i32 1
  %117 = load ptr, ptr %116, align 8
  %118 = getelementptr inbounds %struct.jpeg_memory_mgr, ptr %117, i32 0, i32 2
  %119 = load ptr, ptr %118, align 8
  %120 = load ptr, ptr %3, align 8
  %121 = load ptr, ptr %9, align 8
  %122 = getelementptr inbounds %struct.jpeg_component_info, ptr %121, i32 0, i32 7
  %123 = load i32, ptr %122, align 4
  %124 = load ptr, ptr %9, align 8
  %125 = getelementptr inbounds %struct.jpeg_component_info, ptr %124, i32 0, i32 9
  %126 = load i32, ptr %125, align 4
  %127 = mul i32 %123, %126
  %128 = load i32, ptr %7, align 4
  %129 = load i32, ptr %8, align 4
  %130 = mul nsw i32 %128, %129
  %131 = call ptr %119(ptr noundef %120, i32 noundef 1, i32 noundef %127, i32 noundef %130)
  %132 = load ptr, ptr %5, align 8
  %133 = getelementptr inbounds %struct.my_main_controller, ptr %132, i32 0, i32 1
  %134 = load i32, ptr %6, align 4
  %135 = sext i32 %134 to i64
  %136 = getelementptr inbounds [10 x ptr], ptr %133, i64 0, i64 %135
  store ptr %131, ptr %136, align 8
  br label %137

137:                                              ; preds = %103
  %138 = load i32, ptr %6, align 4
  %139 = add nsw i32 %138, 1
  store i32 %139, ptr %6, align 4
  %140 = load ptr, ptr %9, align 8
  %141 = getelementptr inbounds %struct.jpeg_component_info, ptr %140, i32 1
  store ptr %141, ptr %9, align 8
  br label %97, !llvm.loop !4

142:                                              ; preds = %97
  ret void
}