; Function Attrs: nounwind uwtable
define void @jinit_d_main_controller(ptr noundef %0, i32 noundef %1) local_unnamed_addr #0 {
  %3 = getelementptr inbounds i8, ptr %0, i64 296
  %4 = load i32, ptr %3, align 8
  %.not = icmp eq i32 %4, 8
  br i1 %.not, label %13, label %5

5:                                                ; preds = %2
  %6 = load ptr, ptr %0, align 8
  %7 = getelementptr inbounds i8, ptr %6, i64 40
  store i32 15, ptr %7, align 8
  %8 = load i32, ptr %3, align 8
  %9 = load ptr, ptr %0, align 8
  %10 = getelementptr inbounds i8, ptr %9, i64 44
  store i32 %8, ptr %10, align 4
  %11 = load ptr, ptr %0, align 8
  %12 = load ptr, ptr %11, align 8
  tail call void %12(ptr noundef nonnull %0) #2
  br label %13

13:                                               ; preds = %5, %2
  %14 = getelementptr inbounds i8, ptr %0, i64 8
  %15 = load ptr, ptr %14, align 8
  %16 = load ptr, ptr %15, align 8
  %17 = tail call ptr %16(ptr noundef nonnull %0, i32 noundef 1, i64 noundef 152) #2
  %18 = getelementptr inbounds i8, ptr %0, i64 552
  store ptr %17, ptr %18, align 8
  store ptr @start_pass_main, ptr %17, align 8
  %.not40 = icmp eq i32 %1, 0
  br i1 %.not40, label %24, label %19

19:                                               ; preds = %13
  %20 = load ptr, ptr %0, align 8
  %21 = getelementptr inbounds i8, ptr %20, i64 40
  store i32 4, ptr %21, align 8
  %22 = load ptr, ptr %0, align 8
  %23 = load ptr, ptr %22, align 8
  tail call void %23(ptr noundef nonnull %0) #2
  br label %24

24:                                               ; preds = %19, %13
  %25 = getelementptr inbounds i8, ptr %0, i64 608
  %26 = load ptr, ptr %25, align 8
  %27 = getelementptr inbounds i8, ptr %26, i64 32
  %28 = load i32, ptr %27, align 8
  %.not41 = icmp eq i32 %28, 0
  %29 = getelementptr inbounds i8, ptr %0, i64 416
  %30 = load i32, ptr %29, align 8
  br i1 %.not41, label %89, label %31

31:                                               ; preds = %24
  %32 = icmp slt i32 %30, 2
  br i1 %32, label %33, label %38

33:                                               ; preds = %31
  %34 = load ptr, ptr %0, align 8
  %35 = getelementptr inbounds i8, ptr %34, i64 40
  store i32 47, ptr %35, align 8
  %36 = load ptr, ptr %0, align 8
  %37 = load ptr, ptr %36, align 8
  tail call void %37(ptr noundef nonnull %0) #2
  %.pre = load i32, ptr %29, align 8
  br label %38

38:                                               ; preds = %33, %31
  %39 = phi i32 [ %.pre, %33 ], [ %30, %31 ]
  %40 = load ptr, ptr %18, align 8
  %41 = load ptr, ptr %14, align 8
  %42 = load ptr, ptr %41, align 8
  %43 = getelementptr inbounds i8, ptr %0, i64 56
  %44 = load i32, ptr %43, align 8
  %45 = shl nsw i32 %44, 1
  %46 = sext i32 %45 to i64
  %47 = shl nsw i64 %46, 3
  %48 = tail call ptr %42(ptr noundef nonnull %0, i32 noundef 1, i64 noundef %47) #2
  %49 = getelementptr inbounds i8, ptr %40, i64 120
  store ptr %48, ptr %49, align 8
  %50 = load i32, ptr %43, align 8
  %51 = sext i32 %50 to i64
  %52 = getelementptr inbounds ptr, ptr %48, i64 %51
  %53 = getelementptr inbounds i8, ptr %40, i64 128
  store ptr %52, ptr %53, align 8
  %54 = load i32, ptr %43, align 8
  %55 = icmp sgt i32 %54, 0
  br i1 %55, label %.lr.ph.i, label %alloc_funny_pointers.exit

.lr.ph.i:                                         ; preds = %38
  %56 = getelementptr inbounds i8, ptr %0, i64 304
  %57 = load ptr, ptr %56, align 8
  %58 = add nsw i32 %39, 4
  br label %59

59:                                               ; preds = %59, %.lr.ph.i
  %indvars.iv.i = phi i64 [ 0, %.lr.ph.i ], [ %indvars.iv.next.i, %59 ]
  %.03132.i = phi ptr [ %57, %.lr.ph.i ], [ %82, %59 ]
  %60 = getelementptr inbounds i8, ptr %.03132.i, i64 12
  %61 = load i32, ptr %60, align 4
  %62 = getelementptr inbounds i8, ptr %.03132.i, i64 36
  %63 = load i32, ptr %62, align 4
  %64 = mul nsw i32 %63, %61
  %65 = load i32, ptr %29, align 8
  %66 = sdiv i32 %64, %65
  %67 = load ptr, ptr %14, align 8
  %68 = load ptr, ptr %67, align 8
  %69 = mul nsw i32 %66, %58
  %70 = shl nsw i32 %69, 1
  %71 = sext i32 %70 to i64
  %72 = shl nsw i64 %71, 3
  %73 = tail call ptr %68(ptr noundef nonnull %0, i32 noundef 1, i64 noundef %72) #2
  %74 = sext i32 %66 to i64
  %75 = getelementptr inbounds ptr, ptr %73, i64 %74
  %76 = load ptr, ptr %49, align 8
  %77 = getelementptr inbounds ptr, ptr %76, i64 %indvars.iv.i
  store ptr %75, ptr %77, align 8
  %78 = sext i32 %69 to i64
  %79 = getelementptr inbounds ptr, ptr %75, i64 %78
  %80 = load ptr, ptr %53, align 8
  %81 = getelementptr inbounds ptr, ptr %80, i64 %indvars.iv.i
  store ptr %79, ptr %81, align 8
  %indvars.iv.next.i = add nuw nsw i64 %indvars.iv.i, 1
  %82 = getelementptr inbounds i8, ptr %.03132.i, i64 96
  %83 = load i32, ptr %43, align 8
  %84 = sext i32 %83 to i64
  %85 = icmp slt i64 %indvars.iv.next.i, %84
  br i1 %85, label %59, label %alloc_funny_pointers.exit, !llvm.loop !4

alloc_funny_pointers.exit:                        ; preds = %59, %38
  %86 = phi i32 [ %54, %38 ], [ %83, %59 ]
  %87 = load i32, ptr %29, align 8
  %88 = add nsw i32 %87, 2
  br label %90

89:                                               ; preds = %24
  %.phi.trans.insert = getelementptr inbounds i8, ptr %0, i64 56
  %.pre45 = load i32, ptr %.phi.trans.insert, align 8
  br label %90

90:                                               ; preds = %89, %alloc_funny_pointers.exit
  %91 = phi i32 [ %86, %alloc_funny_pointers.exit ], [ %.pre45, %89 ]
  %.038 = phi i32 [ %88, %alloc_funny_pointers.exit ], [ %30, %89 ]
  %92 = getelementptr inbounds i8, ptr %0, i64 56
  %93 = icmp sgt i32 %91, 0
  br i1 %93, label %.lr.ph, label %._crit_edge

.lr.ph:                                           ; preds = %90
  %94 = getelementptr inbounds i8, ptr %0, i64 304
  %95 = load ptr, ptr %94, align 8
  %96 = getelementptr inbounds i8, ptr %0, i64 416
  %97 = getelementptr inbounds i8, ptr %17, i64 32
  br label %98

98:                                               ; preds = %.lr.ph, %98
  %indvars.iv = phi i64 [ 0, %.lr.ph ], [ %indvars.iv.next, %98 ]
  %.043 = phi ptr [ %95, %.lr.ph ], [ %115, %98 ]
  %99 = getelementptr inbounds i8, ptr %.043, i64 12
  %100 = load i32, ptr %99, align 4
  %101 = getelementptr inbounds i8, ptr %.043, i64 36
  %102 = load i32, ptr %101, align 4
  %103 = mul nsw i32 %102, %100
  %104 = load i32, ptr %96, align 8
  %105 = sdiv i32 %103, %104
  %106 = load ptr, ptr %14, align 8
  %107 = getelementptr inbounds i8, ptr %106, i64 16
  %108 = load ptr, ptr %107, align 8
  %109 = getelementptr inbounds i8, ptr %.043, i64 28
  %110 = load i32, ptr %109, align 4
  %111 = mul i32 %110, %102
  %112 = mul nsw i32 %105, %.038
  %113 = tail call ptr %108(ptr noundef nonnull %0, i32 noundef 1, i32 noundef %111, i32 noundef %112) #2
  %114 = getelementptr inbounds [10 x ptr], ptr %97, i64 0, i64 %indvars.iv
  store ptr %113, ptr %114, align 8
  %indvars.iv.next = add nuw nsw i64 %indvars.iv, 1
  %115 = getelementptr inbounds i8, ptr %.043, i64 96
  %116 = load i32, ptr %92, align 8
  %117 = sext i32 %116 to i64
  %118 = icmp slt i64 %indvars.iv.next, %117
  br i1 %118, label %98, label %._crit_edge, !llvm.loop !6

._crit_edge:                                      ; preds = %98, %90
  ret void
}